target datalayout = "e-m:e-p270:32:32-p271:32:32-p272:64:64-i64:64-i128:128-f80:128-n8:16:32:64-S128"
target triple = "x86_64-pc-linux-gnu"

@_ZL9_instance = internal global ptr null, align 8
@_ZN13JfrStringPoolC1ER14JfrChunkWriter = hidden unnamed_addr alias void (ptr, ptr), ptr @_ZN13JfrStringPoolC2ER14JfrChunkWriter

; Function Attrs: mustprogress nounwind uwtable
define hidden noundef ptr @_ZN13JfrStringPool6createER14JfrChunkWriter(ptr noundef nonnull align 8 dereferenceable(88) %0) #1 align 2 {
  %2 = alloca ptr, align 8
  store ptr %0, ptr %2, align 8
  %3 = call noundef ptr @_ZN11JfrCHeapObjnwEm(i64 noundef 16) #9
  %4 = icmp eq ptr %3, null
  br i1 %4, label %7, label %5

5:                                                ; preds = %1
  %6 = load ptr, ptr %2, align 8
  call void @_ZN13JfrStringPoolC1ER14JfrChunkWriter(ptr noundef nonnull align 8 dereferenceable(16) %3, ptr noundef nonnull align 8 dereferenceable(88) %6)
  br label %7

7:                                                ; preds = %5, %1
  %8 = phi ptr [ %3, %5 ], [ null, %1 ]
  store ptr %8, ptr @_ZL9_instance, align 8
  %9 = load ptr, ptr @_ZL9_instance, align 8
  ret ptr %9
}