; Function Attrs: mustprogress nounwind uwtable
define hidden noundef ptr @_ZN13JfrStringPool6createER14JfrChunkWriter(ptr noundef nonnull align 8 dereferenceable(88) %0) local_unnamed_addr #0 align 2 {
  %2 = tail call noundef ptr @_ZN11JfrCHeapObjnwEm(i64 noundef 16) #16
  %3 = icmp eq ptr %2, null
  br i1 %3, label %6, label %4

4:                                                ; preds = %1
  store ptr null, ptr %2, align 8
  %5 = getelementptr inbounds i8, ptr %2, i64 8
  store ptr %0, ptr %5, align 8
  br label %6

6:                                                ; preds = %4, %1
  store ptr %2, ptr @_ZL9_instance, align 8
  ret ptr %2
}